; ModuleID = '15/782.c'
source_filename = "15/782.c"
target datalayout = "e-m:e-p270:32:32-p271:32:32-p272:64:64-i64:64-f80:128-n8:16:32:64-S128"
target triple = "x86_64-pc-linux-gnu"

@.str = private unnamed_addr constant [3 x i8] c"%d\00", align 1

; Function Attrs: noinline nounwind uwtable
define dso_local i32 @main() #0 {
  %1 = alloca i32, align 4
  %2 = alloca i32, align 4
  %3 = alloca [1000 x [1000 x i32]], align 16
  %4 = alloca i32, align 4
  %5 = alloca i32, align 4
  %6 = alloca i32, align 4
  %7 = alloca i32, align 4
  %8 = alloca i32, align 4
  %9 = alloca i32, align 4
  %10 = alloca i32, align 4
  store i32 0, i32* %1, align 4
  store i32 0, i32* %6, align 4
  %11 = call i32 (i8*, ...) @__isoc99_scanf(i8* getelementptr inbounds ([3 x i8], [3 x i8]* @.str, i64 0, i64 0), i32* %2)
  store i32 0, i32* %4, align 4
  br label %12

12:                                               ; preds = %34, %0
  %13 = load i32, i32* %4, align 4
  %14 = load i32, i32* %2, align 4
  %15 = icmp slt i32 %13, %14
  br i1 %15, label %16, label %37

16:                                               ; preds = %12
  store i32 0, i32* %5, align 4
  br label %17

17:                                               ; preds = %30, %16
  %18 = load i32, i32* %5, align 4
  %19 = load i32, i32* %2, align 4
  %20 = icmp slt i32 %18, %19
  br i1 %20, label %21, label %33

21:                                               ; preds = %17
  %22 = load i32, i32* %4, align 4
  %23 = sext i32 %22 to i64
  %24 = getelementptr inbounds [1000 x [1000 x i32]], [1000 x [1000 x i32]]* %3, i64 0, i64 %23
  %25 = getelementptr inbounds [1000 x i32], [1000 x i32]* %24, i64 0, i64 0
  %26 = load i32, i32* %5, align 4
  %27 = sext i32 %26 to i64
  %28 = getelementptr inbounds i32, i32* %25, i64 %27
  %29 = call i32 (i8*, ...) @__isoc99_scanf(i8* getelementptr inbounds ([3 x i8], [3 x i8]* @.str, i64 0, i64 0), i32* %28)
  br label %30

30:                                               ; preds = %21
  %31 = load i32, i32* %5, align 4
  %32 = add nsw i32 %31, 1
  store i32 %32, i32* %5, align 4
  br label %17

33:                                               ; preds = %17
  br label %34

34:                                               ; preds = %33
  %35 = load i32, i32* %4, align 4
  %36 = add nsw i32 %35, 1
  store i32 %36, i32* %4, align 4
  br label %12

37:                                               ; preds = %12
  store i32 0, i32* %4, align 4
  br label %38

38:                                               ; preds = %68, %37
  %39 = load i32, i32* %4, align 4
  %40 = load i32, i32* %2, align 4
  %41 = icmp slt i32 %39, %40
  br i1 %41, label %42, label %71

42:                                               ; preds = %38
  store i32 0, i32* %5, align 4
  br label %43

43:                                               ; preds = %60, %42
  %44 = load i32, i32* %5, align 4
  %45 = load i32, i32* %2, align 4
  %46 = icmp slt i32 %44, %45
  br i1 %46, label %47, label %63

47:                                               ; preds = %43
  %48 = load i32, i32* %4, align 4
  %49 = sext i32 %48 to i64
  %50 = getelementptr inbounds [1000 x [1000 x i32]], [1000 x [1000 x i32]]* %3, i64 0, i64 %49
  %51 = load i32, i32* %5, align 4
  %52 = sext i32 %51 to i64
  %53 = getelementptr inbounds [1000 x i32], [1000 x i32]* %50, i64 0, i64 %52
  %54 = load i32, i32* %53, align 4
  %55 = icmp eq i32 %54, 0
  br i1 %55, label %56, label %59

56:                                               ; preds = %47
  %57 = load i32, i32* %4, align 4
  store i32 %57, i32* %7, align 4
  %58 = load i32, i32* %5, align 4
  store i32 %58, i32* %8, align 4
  store i32 1, i32* %6, align 4
  br label %63

59:                                               ; preds = %47
  br label %60

60:                                               ; preds = %59
  %61 = load i32, i32* %5, align 4
  %62 = add nsw i32 %61, 1
  store i32 %62, i32* %5, align 4
  br label %43

63:                                               ; preds = %56, %43
  %64 = load i32, i32* %6, align 4
  %65 = icmp ne i32 %64, 0
  br i1 %65, label %66, label %67

66:                                               ; preds = %63
  br label %71

67:                                               ; preds = %63
  br label %68

68:                                               ; preds = %67
  %69 = load i32, i32* %4, align 4
  %70 = add nsw i32 %69, 1
  store i32 %70, i32* %4, align 4
  br label %38

71:                                               ; preds = %66, %38
  %72 = load i32, i32* %8, align 4
  store i32 %72, i32* %4, align 4
  br label %73

73:                                               ; preds = %95, %71
  %74 = load i32, i32* %4, align 4
  %75 = load i32, i32* %2, align 4
  %76 = icmp slt i32 %74, %75
  br i1 %76, label %77, label %98

77:                                               ; preds = %73
  %78 = load i32, i32* %7, align 4
  %79 = sext i32 %78 to i64
  %80 = getelementptr inbounds [1000 x [1000 x i32]], [1000 x [1000 x i32]]* %3, i64 0, i64 %79
  %81 = load i32, i32* %4, align 4
  %82 = add nsw i32 %81, 1
  %83 = sext i32 %82 to i64
  %84 = getelementptr inbounds [1000 x i32], [1000 x i32]* %80, i64 0, i64 %83
  %85 = load i32, i32* %84, align 4
  %86 = icmp ne i32 %85, 0
  br i1 %86, label %92, label %87

87:                                               ; preds = %77
  %88 = load i32, i32* %4, align 4
  %89 = add nsw i32 %88, 1
  %90 = load i32, i32* %2, align 4
  %91 = icmp sge i32 %89, %90
  br i1 %91, label %92, label %94

92:                                               ; preds = %87, %77
  %93 = load i32, i32* %4, align 4
  store i32 %93, i32* %10, align 4
  br label %98

94:                                               ; preds = %87
  br label %95

95:                                               ; preds = %94
  %96 = load i32, i32* %4, align 4
  %97 = add nsw i32 %96, 1
  store i32 %97, i32* %4, align 4
  br label %73

98:                                               ; preds = %92, %73
  %99 = load i32, i32* %7, align 4
  store i32 %99, i32* %4, align 4
  br label %100

100:                                              ; preds = %122, %98
  %101 = load i32, i32* %4, align 4
  %102 = load i32, i32* %2, align 4
  %103 = icmp slt i32 %101, %102
  br i1 %103, label %104, label %125

104:                                              ; preds = %100
  %105 = load i32, i32* %4, align 4
  %106 = add nsw i32 %105, 1
  %107 = sext i32 %106 to i64
  %108 = getelementptr inbounds [1000 x [1000 x i32]], [1000 x [1000 x i32]]* %3, i64 0, i64 %107
  %109 = load i32, i32* %8, align 4
  %110 = sext i32 %109 to i64
  %111 = getelementptr inbounds [1000 x i32], [1000 x i32]* %108, i64 0, i64 %110
  %112 = load i32, i32* %111, align 4
  %113 = icmp ne i32 %112, 0
  br i1 %113, label %119, label %114

114:                                              ; preds = %104
  %115 = load i32, i32* %4, align 4
  %116 = add nsw i32 %115, 1
  %117 = load i32, i32* %2, align 4
  %118 = icmp sge i32 %116, %117
  br i1 %118, label %119, label %121

119:                                              ; preds = %114, %104
  %120 = load i32, i32* %4, align 4
  store i32 %120, i32* %9, align 4
  br label %125

121:                                              ; preds = %114
  br label %122

122:                                              ; preds = %121
  %123 = load i32, i32* %4, align 4
  %124 = add nsw i32 %123, 1
  store i32 %124, i32* %4, align 4
  br label %100

125:                                              ; preds = %119, %100
  %126 = load i32, i32* %9, align 4
  %127 = load i32, i32* %7, align 4
  %128 = sub nsw i32 %126, %127
  %129 = icmp slt i32 %128, 2
  br i1 %129, label %135, label %130

130:                                              ; preds = %125
  %131 = load i32, i32* %10, align 4
  %132 = load i32, i32* %8, align 4
  %133 = sub nsw i32 %131, %132
  %134 = icmp slt i32 %133, 2
  br i1 %134, label %135, label %137

135:                                              ; preds = %130, %125
  %136 = call i32 (i8*, ...) @printf(i8* getelementptr inbounds ([3 x i8], [3 x i8]* @.str, i64 0, i64 0), i32 0)
  store i32 0, i32* %1, align 4
  br label %148

137:                                              ; preds = %130
  %138 = load i32, i32* %9, align 4
  %139 = load i32, i32* %7, align 4
  %140 = sub nsw i32 %138, %139
  %141 = sub nsw i32 %140, 1
  %142 = load i32, i32* %10, align 4
  %143 = load i32, i32* %8, align 4
  %144 = sub nsw i32 %142, %143
  %145 = sub nsw i32 %144, 1
  %146 = mul nsw i32 %141, %145
  %147 = call i32 (i8*, ...) @printf(i8* getelementptr inbounds ([3 x i8], [3 x i8]* @.str, i64 0, i64 0), i32 %146)
  store i32 0, i32* %1, align 4
  br label %148

148:                                              ; preds = %137, %135
  %149 = load i32, i32* %1, align 4
  ret i32 %149
}

declare dso_local i32 @__isoc99_scanf(i8*, ...) #1

declare dso_local i32 @printf(i8*, ...) #1


!llvm.module.flags = !{!0}
!llvm.ident = !{!1}

!0 = !{i32 1, !"wchar_size", i32 4}
!1 = !{!"clang version 10.0.0-4ubuntu1 "}
